Certificate:
    Data:
        Version: 3 (0x2)
        Serial Number:
            01:00:00:00:81
        Signature Algorithm: md5WithRSAEncryption
        Issuer: C=GR, O=Greek Research and Technology Network, CN=GRNET Servers Certification Authority 2008
        Validity
            Not Before: Sep 23 00:00:00 2008 GMT
            Not After : Sep 23 23:59:59 2009 GMT
        Subject: C=GR, O=Greek Research and Technology Network, CN=gss.grnet.gr
        Subject Public Key Info:
            Public Key Algorithm: rsaEncryption
            RSA Public Key: (1024 bit)
                Modulus (1024 bit):
                    00:98:da:47:3d:42:1a:46:21:c5:16:fd:a7:96:b5:
                    ec:84:30:34:06:d0:a3:52:04:f2:75:0b:53:93:53:
                    07:e9:e6:6a:7d:d0:28:4d:ff:ca:84:27:5f:11:f4:
                    ee:3e:13:00:4f:bd:3e:56:a5:82:9d:66:46:84:a5:
                    72:27:1c:35:38:c0:91:a9:13:05:db:74:63:bd:32:
                    46:bb:70:47:09:75:cb:37:8e:42:58:7b:77:f3:02:
                    a0:5e:5e:30:a7:69:d1:1b:c7:9f:6f:7a:cf:30:de:
                    b8:b3:c4:7f:d1:30:da:d4:f5:3a:9c:c3:67:da:7f:
                    5a:c8:35:87:7c:1b:80:c6:d1
                Exponent: 65537 (0x10001)
        X509v3 extensions:
            X509v3 Basic Constraints: critical
                CA:FALSE
            Netscape Cert Type: 
                SSL Client, SSL Server
            X509v3 Key Usage: critical
                Digital Signature, Non Repudiation, Key Encipherment, Data Encipherment
            X509v3 Extended Key Usage: critical
                TLS Web Client Authentication, TLS Web Server Authentication
            X509v3 Subject Key Identifier: 
                36:5F:DC:FE:F0:9B:5A:3E:7F:44:69:56:36:E7:FE:43:19:52:85:B3
            X509v3 Authority Key Identifier: 
                keyid:14:CA:72:7D:22:E7:E9:41:60:08:13:D3:83:B5:8C:2B:D9:B5:6E:60
                DirName:/C=GR/O=Greek Research and Technology Network/CN=GRNET Root Certification Authority 2004
                serial:01:00:00:00:0B

            Authority Information Access: 
                OCSP - URI:http://ocsp.ca.grnet.gr/

            X509v3 CRL Distribution Points: 
                URI:http://crlv1.ca.grnet.gr/GrnetServersCA2008/crlv1.der.crl

            Netscape Comment: 
                This certificate is subject to Greek laws and our CPS. This Certificate must only be used for academic, research or educational purposes.
            X509v3 Certificate Policies: 
                Policy: 1.3.6.1.4.1.16515.1.2.1.0
                  CPS: http://www.ca.grnet.gr/documents/CPS.html
                  User Notice:
                    Organization: Greek Research and Technology Network
                    Number: 1
                    Explicit Text: This certificate is subject to Greek laws and our CPS. This Certificate must only be used for academic, research or educational purposes.

    Signature Algorithm: md5WithRSAEncryption
        03:93:54:d3:c2:54:0d:2d:76:02:80:68:c5:6d:91:29:50:74:
        fd:da:8b:f9:8b:93:9a:19:b2:2b:47:09:2b:31:42:ff:50:35:
        26:b5:2c:87:89:2a:21:17:48:62:db:40:a0:2e:a7:b7:d0:29:
        a6:c4:c3:92:a7:3f:06:27:7f:14:73:7f:6a:3f:33:6d:3e:79:
        1f:62:59:9a:37:32:42:11:12:6f:c5:c1:8c:e5:7f:60:24:6f:
        73:cf:67:8f:b0:ed:c9:70:12:3e:3c:a2:0c:2a:5d:1b:ea:d1:
        ab:02:c9:bb:b3:bb:d6:c2:b4:02:c5:c4:dc:be:a3:bc:fb:a9:
        f1:8e:3c:39:21:21:e0:b0:32:3d:6e:e9:d7:cb:54:9b:57:de:
        2f:b8:98:2b:60:99:4a:70:ad:49:7f:5f:be:73:c1:72:22:cc:
        b2:c5:2f:b6:aa:d2:31:cf:23:74:f9:78:b5:40:e2:94:06:cd:
        15:94:4d:19:2f:bb:b3:8c:be:7f:d6:02:ba:bc:58:9f:96:65:
        72:22:6b:20:6e:58:c4:9a:48:2b:28:e3:e3:d0:af:f9:e7:3f:
        c4:e9:6a:ad:82:fc:2f:e7:a7:df:c3:6c:8c:b2:87:41:f8:f8:
        ec:96:ee:8b:b6:60:b9:1f:ae:d1:36:da:9a:0d:04:94:79:a4:
        88:35:ff:35
-----BEGIN CERTIFICATE-----
MIIGIDCCBQigAwIBAgIFAQAAAIEwDQYJKoZIhvcNAQEEBQAwcjELMAkGA1UEBhMC
R1IxLjAsBgNVBAoTJUdyZWVrIFJlc2VhcmNoIGFuZCBUZWNobm9sb2d5IE5ldHdv
cmsxMzAxBgNVBAMTKkdSTkVUIFNlcnZlcnMgQ2VydGlmaWNhdGlvbiBBdXRob3Jp
dHkgMjAwODAeFw0wODA5MjMwMDAwMDBaFw0wOTA5MjMyMzU5NTlaMFQxCzAJBgNV
BAYTAkdSMS4wLAYDVQQKEyVHcmVlayBSZXNlYXJjaCBhbmQgVGVjaG5vbG9neSBO
ZXR3b3JrMRUwEwYDVQQDEwxnc3MuZ3JuZXQuZ3IwgZ8wDQYJKoZIhvcNAQEBBQAD
gY0AMIGJAoGBAJjaRz1CGkYhxRb9p5a17IQwNAbQo1IE8nULU5NTB+nman3QKE3/
yoQnXxH07j4TAE+9Plalgp1mRoSlciccNTjAkakTBdt0Y70yRrtwRwl1yzeOQlh7
d/MCoF5eMKdp0RvHn296zzDeuLPEf9Ew2tT1OpzDZ9p/Wsg1h3wbgMbRAgMBAAGj
ggNdMIIDWTAMBgNVHRMBAf8EAjAAMBEGCWCGSAGG+EIBAQQEAwIGwDAOBgNVHQ8B
Af8EBAMCBPAwIAYDVR0lAQH/BBYwFAYIKwYBBQUHAwIGCCsGAQUFBwMBMB0GA1Ud
DgQWBBQ2X9z+8JtaPn9EaVY25/5DGVKFszCBnQYDVR0jBIGVMIGSgBQUynJ9Iufp
QWAIE9ODtYwr2bVuYKFzpHEwbzELMAkGA1UEBhMCR1IxLjAsBgNVBAoTJUdyZWVr
IFJlc2VhcmNoIGFuZCBUZWNobm9sb2d5IE5ldHdvcmsxMDAuBgNVBAMTJ0dSTkVU
IFJvb3QgQ2VydGlmaWNhdGlvbiBBdXRob3JpdHkgMjAwNIIFAQAAAAswNAYIKwYB
BQUHAQEEKDAmMCQGCCsGAQUFBzABhhhodHRwOi8vb2NzcC5jYS5ncm5ldC5nci8w
SgYDVR0fBEMwQTA/oD2gO4Y5aHR0cDovL2NybHYxLmNhLmdybmV0LmdyL0dybmV0
U2VydmVyc0NBMjAwOC9jcmx2MS5kZXIuY3JsMIGaBglghkgBhvhCAQ0EgYwWgYlU
aGlzIGNlcnRpZmljYXRlIGlzIHN1YmplY3QgdG8gR3JlZWsgbGF3cyBhbmQgb3Vy
IENQUy4gVGhpcyBDZXJ0aWZpY2F0ZSBtdXN0IG9ubHkgYmUgdXNlZCBmb3IgYWNh
ZGVtaWMsIHJlc2VhcmNoIG9yIGVkdWNhdGlvbmFsIHB1cnBvc2VzLjCCASQGA1Ud
IASCARswggEXMIIBEwYMKwYBBAGBgQMBAgEAMIIBATA1BggrBgEFBQcCARYpaHR0
cDovL3d3dy5jYS5ncm5ldC5nci9kb2N1bWVudHMvQ1BTLmh0bWwwgccGCCsGAQUF
BwICMIG6MCwWJUdyZWVrIFJlc2VhcmNoIGFuZCBUZWNobm9sb2d5IE5ldHdvcmsw
AwIBARqBiVRoaXMgY2VydGlmaWNhdGUgaXMgc3ViamVjdCB0byBHcmVlayBsYXdz
IGFuZCBvdXIgQ1BTLiBUaGlzIENlcnRpZmljYXRlIG11c3Qgb25seSBiZSB1c2Vk
IGZvciBhY2FkZW1pYywgcmVzZWFyY2ggb3IgZWR1Y2F0aW9uYWwgcHVycG9zZXMu
MA0GCSqGSIb3DQEBBAUAA4IBAQADk1TTwlQNLXYCgGjFbZEpUHT92ov5i5OaGbIr
RwkrMUL/UDUmtSyHiSohF0hi20CgLqe30CmmxMOSpz8GJ38Uc39qPzNtPnkfYlma
NzJCERJvxcGM5X9gJG9zz2ePsO3JcBI+PKIMKl0b6tGrAsm7s7vWwrQCxcTcvqO8
+6nxjjw5ISHgsDI9bunXy1SbV94vuJgrYJlKcK1Jf1++c8FyIsyyxS+2qtIxzyN0
+Xi1QOKUBs0VlE0ZL7uzjL5/1gK6vFiflmVyImsgbljEmkgrKOPj0K/55z/E6Wqt
gvwv56ffw2yMsodB+Pjslu6LtmC5H67RNtqaDQSUeaSINf81
-----END CERTIFICATE-----

Certificate:
    Data:
        Version: 3 (0x2)
        Serial Number:
            01:00:00:00:0b
        Signature Algorithm: md5WithRSAEncryption
        Issuer: C=GR, O=Greek Research and Technology Network, CN=GRNET Root Certification Authority 2004
        Validity
            Not Before: May 14 10:27:09 2008 GMT
            Not After : May 12 10:27:09 2016 GMT
        Subject: C=GR, O=Greek Research and Technology Network, CN=GRNET Servers Certification Authority 2008
        Subject Public Key Info:
            Public Key Algorithm: rsaEncryption
            RSA Public Key: (2048 bit)
                Modulus (2048 bit):
                    00:a1:ee:59:ec:96:24:61:ae:77:9d:49:6b:77:ee:
                    28:99:a9:a3:30:8c:61:c0:1d:85:9b:71:aa:5c:57:
                    4e:10:b4:27:6f:05:2b:25:33:43:8b:99:80:0d:55:
                    3f:f8:1e:28:52:c8:b0:3d:09:3a:c6:62:7b:87:d5:
                    3b:31:36:73:bf:f8:f9:c4:9c:b6:01:de:03:4b:25:
                    03:22:93:86:28:10:5b:bb:f8:2c:37:89:45:71:17:
                    e0:79:3c:a9:df:30:b0:01:31:fc:0c:01:b9:93:e7:
                    29:91:72:46:f6:8e:a1:22:6a:e4:89:5e:9b:e7:f6:
                    e3:ee:f3:b8:3d:a1:8d:bc:ba:a4:c1:a8:ea:e9:ea:
                    19:24:28:9f:f4:77:04:53:b5:ce:13:0e:d6:b4:fe:
                    ee:7e:0f:b6:3c:b1:3f:9b:1c:cd:f0:05:2a:93:93:
                    47:15:2f:85:32:1a:6e:ef:50:0c:f5:bf:28:3c:a9:
                    91:9c:65:49:51:f1:5d:36:c2:1d:4e:77:f3:dc:c9:
                    ef:9e:e1:63:e7:c5:32:6a:15:16:6d:c8:4e:2d:34:
                    32:06:8c:47:af:33:dc:00:21:d0:45:ba:39:c0:b5:
                    c6:61:ab:9b:21:bf:cc:a5:48:63:56:5a:ca:d0:a0:
                    0d:6c:42:54:7b:5c:c5:d2:42:5f:66:19:39:b7:49:
                    35:3f
                Exponent: 65537 (0x10001)
        X509v3 extensions:
            X509v3 Basic Constraints: critical
                CA:TRUE
            X509v3 Key Usage: 
                Certificate Sign, CRL Sign
            Netscape Cert Type: 
                SSL CA, S/MIME CA, Object Signing CA
            X509v3 Subject Key Identifier: 
                14:CA:72:7D:22:E7:E9:41:60:08:13:D3:83:B5:8C:2B:D9:B5:6E:60
            X509v3 Subject Alternative Name: 
                email:ca@grnet.gr
            X509v3 Issuer Alternative Name: 
                email:rootca2004@grnet.gr
            X509v3 CRL Distribution Points: 
                URI:http://crlv1.ca.grnet.gr/GrnetRootCA2004/crlv1.der.crl

            Netscape CA Revocation Url: 
                ns_revoke_query.php?
            Netscape Base Url: 
                http://crlv1.ca.grnet.gr/GrnetRootCA2004
            Netscape CA Policy Url: 
                http://www.ca.grnet.gr/documents/GrnetRootCA2004/CP1.1.html
            Netscape Comment: 
                This certificate is subject to Greek laws and our CPS. This Certificate must only be used for academic, research or educational purposes.
            X509v3 Authority Key Identifier: 
                keyid:85:18:BF:C3:AF:3B:81:9F:E5:79:C6:E1:13:34:6D:D2:04:06:D8:E8
                DirName:/C=GR/O=Greek Research and Technology Network/CN=GRNET Root Certification Authority 2004
                serial:00

            Authority Information Access: 
                OCSP - URI:http://ocsp.ca.grnet.gr:8000/

            X509v3 Certificate Policies: 
                Policy: 1.3.6.1.4.1.16515.1.1.1.1
                  CPS: http://www.ca.grnet.gr/documents/CPS.html
                  User Notice:
                    Organization: Greek Research and Technology Network
                    Number: 1
                    Explicit Text: This certificate is subject to Greek laws and our CPS. This Certificate must only be used for academic, research or educational purposes.

    Signature Algorithm: md5WithRSAEncryption
        d4:40:78:ae:1d:c0:e3:40:13:41:6a:3f:b5:bf:f7:12:b2:8b:
        f6:7d:34:fb:39:50:bd:84:8f:28:c6:c1:85:3f:aa:e8:81:79:
        19:a8:e9:cb:19:a1:6e:63:d4:21:17:a3:be:b6:1f:de:d0:94:
        d3:a2:eb:a0:73:14:e8:a2:2d:ab:55:e7:3f:18:32:50:8c:d3:
        1d:15:de:af:72:fa:6e:51:e7:4c:2c:c7:48:37:f7:1b:b5:eb:
        f2:89:4f:9e:da:98:81:bd:bc:e1:37:e5:71:43:a1:0f:cb:df:
        b0:28:dc:d1:17:f6:0f:d7:76:f2:cb:e4:de:1e:a5:60:ff:26:
        d1:3e:2f:d9:54:8f:d7:f0:51:e9:ca:e4:98:d1:9e:9d:24:4e:
        f7:d7:b2:8e:db:c4:99:00:f4:a1:aa:57:61:d2:7e:0a:4e:d1:
        0a:b3:f5:e1:77:5b:21:13:e3:8f:25:c8:7f:30:c0:b8:b1:c4:
        b9:5f:e0:73:6b:e2:91:0d:ea:e3:f8:9d:b3:6b:c6:c9:6f:40:
        57:e1:a0:70:f5:87:fe:fd:c6:ca:7b:7e:d7:b5:a4:6f:41:f3:
        8a:5c:c0:fd:ce:89:d1:03:b4:1c:22:e7:9c:90:f7:e3:7f:91:
        7e:f9:1e:87:d4:e4:31:6c:97:d3:3d:64:70:98:12:f2:6e:80:
        7e:95:15:9e:9a:a1:7b:ab:89:49:3e:91:2d:b9:1d:4c:ae:d5:
        73:78:5f:af:60:af:d1:72:de:73:a2:49:e4:a8:55:e5:7c:4a:
        d7:13:24:11:87:6c:19:05:13:51:25:04:f4:8d:83:a7:27:47:
        17:37:16:a5:1f:ae:26:a3:a4:4e:fb:f6:e0:61:37:59:46:91:
        3c:23:e9:4f:93:59:6e:60:f8:e6:08:c9:24:07:f9:d1:4d:39:
        25:15:f2:35:e5:89:af:bd:b9:33:76:c8:29:4a:b3:9f:3d:85:
        e1:31:0d:6a:91:c7:75:40:87:4d:c0:89:7a:ac:fc:7e:3d:84:
        fc:c9:8f:28:dd:16:d8:08:3b:41:fd:e2:0e:26:b2:8c:73:ec:
        2f:2c:39:87:63:87:f7:5e:1c:07:16:44:50:bc:94:c3:1e:2c:
        1e:34:31:7f:bb:30:f3:8f:c6:09:07:83:f4:a2:02:4a:b7:10:
        3e:41:8e:f7:a0:5b:1f:e2:97:4a:4e:72:8b:45:e1:90:43:5c:
        e3:3b:d2:b2:13:9a:cc:fb:5a:1c:1c:84:eb:30:eb:44:58:bf:
        b4:02:d1:38:99:11:ac:6b:79:3f:9c:a5:ca:8c:8c:35:2a:8b:
        19:b2:d8:64:41:df:88:4d:91:53:6f:7c:71:f9:8d:7c:3f:a2:
        25:23:27:88:72:43:40:9d
-----BEGIN CERTIFICATE-----
MIIIfTCCBmWgAwIBAgIFAQAAAAswDQYJKoZIhvcNAQEEBQAwbzELMAkGA1UEBhMC
R1IxLjAsBgNVBAoTJUdyZWVrIFJlc2VhcmNoIGFuZCBUZWNobm9sb2d5IE5ldHdv
cmsxMDAuBgNVBAMTJ0dSTkVUIFJvb3QgQ2VydGlmaWNhdGlvbiBBdXRob3JpdHkg
MjAwNDAeFw0wODA1MTQxMDI3MDlaFw0xNjA1MTIxMDI3MDlaMHIxCzAJBgNVBAYT
AkdSMS4wLAYDVQQKEyVHcmVlayBSZXNlYXJjaCBhbmQgVGVjaG5vbG9neSBOZXR3
b3JrMTMwMQYDVQQDEypHUk5FVCBTZXJ2ZXJzIENlcnRpZmljYXRpb24gQXV0aG9y
aXR5IDIwMDgwggEiMA0GCSqGSIb3DQEBAQUAA4IBDwAwggEKAoIBAQCh7lnsliRh
rnedSWt37iiZqaMwjGHAHYWbcapcV04QtCdvBSslM0OLmYANVT/4HihSyLA9CTrG
YnuH1TsxNnO/+PnEnLYB3gNLJQMik4YoEFu7+Cw3iUVxF+B5PKnfMLABMfwMAbmT
5ymRckb2jqEiauSJXpvn9uPu87g9oY28uqTBqOrp6hkkKJ/0dwRTtc4TDta0/u5+
D7Y8sT+bHM3wBSqTk0cVL4UyGm7vUAz1vyg8qZGcZUlR8V02wh1Od/Pcye+e4WPn
xTJqFRZtyE4tNDIGjEevM9wAIdBFujnAtcZhq5shv8ylSGNWWsrQoA1sQlR7XMXS
Ql9mGTm3STU/AgMBAAGjggQbMIIEFzAPBgNVHRMBAf8EBTADAQH/MAsGA1UdDwQE
AwIBBjARBglghkgBhvhCAQEEBAMCAAcwHQYDVR0OBBYEFBTKcn0i5+lBYAgT04O1
jCvZtW5gMBYGA1UdEQQPMA2BC2NhQGdybmV0LmdyMB4GA1UdEgQXMBWBE3Jvb3Rj
YTIwMDRAZ3JuZXQuZ3IwRwYDVR0fBEAwPjA8oDqgOIY2aHR0cDovL2NybHYxLmNh
LmdybmV0LmdyL0dybmV0Um9vdENBMjAwNC9jcmx2MS5kZXIuY3JsMCMGCWCGSAGG
+EIBBAQWFhRuc19yZXZva2VfcXVlcnkucGhwPzA3BglghkgBhvhCAQIEKhYoaHR0
cDovL2NybHYxLmNhLmdybmV0LmdyL0dybmV0Um9vdENBMjAwNDBKBglghkgBhvhC
AQgEPRY7aHR0cDovL3d3dy5jYS5ncm5ldC5nci9kb2N1bWVudHMvR3JuZXRSb290
Q0EyMDA0L0NQMS4xLmh0bWwwgZoGCWCGSAGG+EIBDQSBjBaBiVRoaXMgY2VydGlm
aWNhdGUgaXMgc3ViamVjdCB0byBHcmVlayBsYXdzIGFuZCBvdXIgQ1BTLiBUaGlz
IENlcnRpZmljYXRlIG11c3Qgb25seSBiZSB1c2VkIGZvciBhY2FkZW1pYywgcmVz
ZWFyY2ggb3IgZWR1Y2F0aW9uYWwgcHVycG9zZXMuMIGZBgNVHSMEgZEwgY6AFIUY
v8OvO4Gf5XnG4RM0bdIEBtjooXOkcTBvMQswCQYDVQQGEwJHUjEuMCwGA1UEChMl
R3JlZWsgUmVzZWFyY2ggYW5kIFRlY2hub2xvZ3kgTmV0d29yazEwMC4GA1UEAxMn
R1JORVQgUm9vdCBDZXJ0aWZpY2F0aW9uIEF1dGhvcml0eSAyMDA0ggEAMDkGCCsG
AQUFBwEBBC0wKzApBggrBgEFBQcwAYYdaHR0cDovL29jc3AuY2EuZ3JuZXQuZ3I6
ODAwMC8wggEkBgNVHSAEggEbMIIBFzCCARMGDCsGAQQBgYEDAQEBATCCAQEwNQYI
KwYBBQUHAgEWKWh0dHA6Ly93d3cuY2EuZ3JuZXQuZ3IvZG9jdW1lbnRzL0NQUy5o
dG1sMIHHBggrBgEFBQcCAjCBujAsFiVHcmVlayBSZXNlYXJjaCBhbmQgVGVjaG5v
bG9neSBOZXR3b3JrMAMCAQEagYlUaGlzIGNlcnRpZmljYXRlIGlzIHN1YmplY3Qg
dG8gR3JlZWsgbGF3cyBhbmQgb3VyIENQUy4gVGhpcyBDZXJ0aWZpY2F0ZSBtdXN0
IG9ubHkgYmUgdXNlZCBmb3IgYWNhZGVtaWMsIHJlc2VhcmNoIG9yIGVkdWNhdGlv
bmFsIHB1cnBvc2VzLjANBgkqhkiG9w0BAQQFAAOCAgEA1EB4rh3A40ATQWo/tb/3
ErKL9n00+zlQvYSPKMbBhT+q6IF5GajpyxmhbmPUIRejvrYf3tCU06LroHMU6KIt
q1XnPxgyUIzTHRXer3L6blHnTCzHSDf3G7Xr8olPntqYgb284TflcUOhD8vfsCjc
0Rf2D9d28svk3h6lYP8m0T4v2VSP1/BR6crkmNGenSRO99eyjtvEmQD0oapXYdJ+
Ck7RCrP14XdbIRPjjyXIfzDAuLHEuV/gc2vikQ3q4/ids2vGyW9AV+GgcPWH/v3G
ynt+17Wkb0HzilzA/c6J0QO0HCLnnJD343+Rfvkeh9TkMWyX0z1kcJgS8m6AfpUV
npqhe6uJST6RLbkdTK7Vc3hfr2Cv0XLec6JJ5KhV5XxK1xMkEYdsGQUTUSUE9I2D
pydHFzcWpR+uJqOkTvv24GE3WUaRPCPpT5NZbmD45gjJJAf50U05JRXyNeWJr725
M3bIKUqznz2F4TENapHHdUCHTcCJeqz8fj2E/MmPKN0W2Ag7Qf3iDiayjHPsLyw5
h2OH914cBxZEULyUwx4sHjQxf7sw84/GCQeD9KICSrcQPkGO96BbH+KXSk5yi0Xh
kENc4zvSshOazPtaHByE6zDrRFi/tALROJkRrGt5P5ylyoyMNSqLGbLYZEHfiE2R
U298cfmNfD+iJSMniHJDQJ0=
-----END CERTIFICATE-----

Certificate:
    Data:
        Version: 3 (0x2)
        Serial Number: 0 (0x0)
        Signature Algorithm: md5WithRSAEncryption
        Issuer: C=GR, O=Greek Research and Technology Network, CN=GRNET Root Certification Authority 2004
        Validity
            Not Before: Jun  3 07:12:32 2004 GMT
            Not After : May 29 07:12:32 2024 GMT
        Subject: C=GR, O=Greek Research and Technology Network, CN=GRNET Root Certification Authority 2004
        Subject Public Key Info:
            Public Key Algorithm: rsaEncryption
            RSA Public Key: (4096 bit)
                Modulus (4096 bit):
                    00:f7:18:b6:b2:1c:0d:6d:d4:d0:17:80:8c:ea:d8:
                    d5:93:33:15:9b:27:c3:85:d5:de:00:bd:a9:dc:74:
                    ea:22:87:f8:d1:82:4d:37:ec:03:6e:7c:9f:b1:da:
                    94:91:f3:fd:3a:fb:68:76:05:21:74:03:fe:15:e2:
                    a7:f2:05:dc:0d:1e:4b:ef:ac:5b:62:ed:8b:0d:ee:
                    4d:e1:f6:71:d0:9e:d7:fb:11:91:c8:1a:a6:67:e5:
                    be:93:82:a4:ea:b1:68:96:4b:c7:4d:aa:c3:61:14:
                    5a:8d:64:ec:d7:e3:b2:14:7e:72:ab:ac:6d:9c:8b:
                    26:4e:ed:a4:34:d9:a8:57:f9:17:91:f0:53:ba:87:
                    1d:1d:4f:c6:57:32:06:3a:21:82:12:a2:b9:73:66:
                    aa:56:cd:05:f7:2d:fc:c3:ab:79:44:5d:85:13:fd:
                    8b:b9:0a:e2:85:46:08:3e:9f:ec:91:e6:02:8d:bf:
                    94:c5:fd:e2:d2:69:77:96:46:96:64:39:58:3e:ca:
                    91:8c:d4:da:e3:8e:96:0b:78:aa:a7:4f:ca:6a:d4:
                    b9:73:a0:d6:da:fe:22:d2:31:a4:49:d7:c8:e9:be:
                    8c:2f:3a:e9:2f:17:d0:7a:cd:1f:2b:cb:d7:34:4f:
                    ff:37:89:c7:7e:d3:03:02:50:ba:ac:18:ec:02:b1:
                    9d:3d:e9:d2:1f:8f:51:ac:2b:79:fe:ae:a7:a7:cf:
                    f7:8d:bc:dc:f1:7f:b5:c2:83:ca:2f:e4:80:ac:4b:
                    57:ad:17:91:b7:b4:f2:3f:c9:e5:00:5d:1d:21:3b:
                    4a:a4:45:38:25:ff:fe:4a:b0:16:fa:c9:5f:02:72:
                    fc:1e:92:96:88:15:95:f2:91:a4:8d:9b:56:21:85:
                    5c:3a:af:e9:aa:84:85:11:84:61:14:8c:b2:e8:fb:
                    50:0f:fb:14:4f:0c:bc:6a:d4:fb:c5:0d:50:c9:51:
                    b4:20:a7:cd:29:fa:4e:59:76:b0:d2:1b:08:ed:0c:
                    03:f4:0a:1f:34:69:c0:76:af:1d:8e:0d:07:b8:5f:
                    16:5f:9a:d3:d7:0d:9f:ec:e2:97:b8:90:4a:a3:f2:
                    c3:7c:ee:13:d1:33:10:d8:a5:f4:83:e6:ba:d5:c3:
                    df:3d:a2:38:75:ec:ae:17:3b:dd:69:96:f2:71:4e:
                    38:2d:db:89:45:e0:f4:3b:7e:f9:72:42:25:a8:3b:
                    ee:79:d8:80:02:90:33:86:f5:13:1f:e9:3b:fb:a8:
                    1e:f0:5f:18:2a:12:aa:f4:8c:34:3b:5c:34:a9:ac:
                    0e:c7:0e:46:e3:f4:19:62:63:8d:c2:34:d4:95:98:
                    0d:4f:a8:2a:bc:a1:1e:28:de:84:cc:99:da:b7:82:
                    5f:b4:ef
                Exponent: 65537 (0x10001)
        X509v3 extensions:
            X509v3 Subject Key Identifier: 
                85:18:BF:C3:AF:3B:81:9F:E5:79:C6:E1:13:34:6D:D2:04:06:D8:E8
            X509v3 Authority Key Identifier: 
                keyid:85:18:BF:C3:AF:3B:81:9F:E5:79:C6:E1:13:34:6D:D2:04:06:D8:E8
                DirName:/C=GR/O=Greek Research and Technology Network/CN=GRNET Root Certification Authority 2004
                serial:00

            X509v3 Basic Constraints: critical
                CA:TRUE
            X509v3 Key Usage: 
                Certificate Sign, CRL Sign
            Netscape Cert Type: 
                SSL CA, S/MIME CA, Object Signing CA
            Netscape CA Policy Url: 
                http://www.ca.grnet.gr/documents/GrnetRootCA2004/CP1.0.html
            Netscape Comment: 
                This certificate is subject to Greek laws and our CPS. This Certificate must only be used for academic, research or educational purposes.
            X509v3 Subject Alternative Name: 
                email:rootca2004@grnet.gr
            X509v3 Certificate Policies: 
                Policy: 1.3.6.1.4.1.16515.1.1.1.1
                  CPS: http://www.ca.grnet.gr/documents/CPS.html
                  User Notice:
                    Organization: Greek Research and Technology Network
                    Number: 1
                    Explicit Text: This certificate is subject to Greek laws and our CPS. This Certificate must only be used for academic, research or educational purposes.

    Signature Algorithm: md5WithRSAEncryption
        5d:01:20:3f:20:b1:57:29:16:ed:38:1a:9d:5f:b9:3a:e6:77:
        39:ed:d6:23:55:98:93:26:a9:52:14:64:3c:10:ba:14:1e:90:
        04:a1:14:ec:22:a4:0d:f3:15:27:bf:58:49:c1:17:c2:2b:4d:
        53:00:9d:bc:d2:2f:18:be:56:cc:56:2a:47:e2:24:6e:8e:8a:
        b3:63:f2:4b:19:66:24:17:f7:97:3c:af:4e:58:b9:7b:60:a2:
        ba:39:5e:c8:13:da:20:58:9f:ff:2b:96:23:4f:22:e2:75:86:
        56:06:97:68:b3:5f:5f:0b:13:f4:6b:fe:30:34:94:f2:97:d7:
        cc:d9:33:4e:53:55:47:a2:7d:26:81:b5:23:cc:68:be:65:46:
        e0:72:6a:bc:b6:c4:16:fe:d3:4a:87:4a:ba:1e:f8:01:99:b0:
        a3:d5:c1:0a:ce:a4:aa:de:59:46:d4:34:0b:aa:6c:73:eb:dc:
        f8:9a:3b:7b:b7:dd:9f:12:ce:73:ad:f1:30:0e:95:1c:b7:e5:
        1f:36:2b:34:b4:eb:20:a8:f3:d5:5f:2a:e6:e8:2d:20:54:df:
        7f:fd:4b:28:95:cd:d3:48:51:57:09:c0:2d:07:f8:94:63:b3:
        2d:1e:09:ed:c8:a8:74:ba:0c:00:70:6f:f4:18:84:8c:ca:dc:
        c1:54:d7:f2:5a:c0:05:2d:e3:93:ef:82:68:1c:fc:e3:90:38:
        0d:73:5d:70:b0:a6:66:7d:0a:26:5d:a2:35:d9:6e:99:00:2f:
        cd:84:b3:f1:90:48:78:da:01:66:cd:8c:aa:45:ed:28:02:f7:
        3e:5e:38:a8:3d:ad:ef:bf:5a:ee:06:e0:59:ce:f1:28:df:27:
        e4:b1:02:52:24:b5:b4:65:73:ed:10:84:1a:51:8f:7c:5a:83:
        25:c2:93:cb:13:62:11:88:91:34:1e:4f:32:5d:40:a3:d6:26:
        5b:46:46:1d:c8:4e:d8:88:be:d3:0e:41:aa:bc:81:80:61:6d:
        fb:8f:ee:99:1f:cb:e1:27:7d:18:62:28:a1:26:8e:af:ce:bd:
        d7:f4:28:6c:1e:24:9a:eb:ab:ff:67:5b:26:a5:0e:14:5e:d0:
        9d:f2:de:df:40:82:b0:47:a2:0e:5e:9a:a3:04:1e:c8:71:d7:
        65:a6:ad:6b:76:1d:08:b2:0a:df:8d:e9:e5:01:32:92:6c:f0:
        f4:33:22:62:6a:e5:b1:70:60:06:95:85:b1:da:b9:ba:ab:7d:
        96:33:ca:6c:e6:1e:17:a8:30:17:d0:bf:bd:e6:d4:56:8c:27:
        fb:1e:2d:0e:f7:50:78:ad:48:86:bf:e7:f4:cd:a0:21:e3:6b:
        1e:96:16:cc:42:97:ff:87
-----BEGIN CERTIFICATE-----
MIIIfDCCBmSgAwIBAgIBADANBgkqhkiG9w0BAQQFADBvMQswCQYDVQQGEwJHUjEu
MCwGA1UEChMlR3JlZWsgUmVzZWFyY2ggYW5kIFRlY2hub2xvZ3kgTmV0d29yazEw
MC4GA1UEAxMnR1JORVQgUm9vdCBDZXJ0aWZpY2F0aW9uIEF1dGhvcml0eSAyMDA0
MB4XDTA0MDYwMzA3MTIzMloXDTI0MDUyOTA3MTIzMlowbzELMAkGA1UEBhMCR1Ix
LjAsBgNVBAoTJUdyZWVrIFJlc2VhcmNoIGFuZCBUZWNobm9sb2d5IE5ldHdvcmsx
MDAuBgNVBAMTJ0dSTkVUIFJvb3QgQ2VydGlmaWNhdGlvbiBBdXRob3JpdHkgMjAw
NDCCAiIwDQYJKoZIhvcNAQEBBQADggIPADCCAgoCggIBAPcYtrIcDW3U0BeAjOrY
1ZMzFZsnw4XV3gC9qdx06iKH+NGCTTfsA258n7HalJHz/Tr7aHYFIXQD/hXip/IF
3A0eS++sW2Ltiw3uTeH2cdCe1/sRkcgapmflvpOCpOqxaJZLx02qw2EUWo1k7Nfj
shR+cqusbZyLJk7tpDTZqFf5F5HwU7qHHR1PxlcyBjohghKiuXNmqlbNBfct/MOr
eURdhRP9i7kK4oVGCD6f7JHmAo2/lMX94tJpd5ZGlmQ5WD7KkYzU2uOOlgt4qqdP
ymrUuXOg1tr+ItIxpEnXyOm+jC866S8X0HrNHyvL1zRP/zeJx37TAwJQuqwY7AKx
nT3p0h+PUawref6up6fP94283PF/tcKDyi/kgKxLV60Xkbe08j/J5QBdHSE7SqRF
OCX//kqwFvrJXwJy/B6SlogVlfKRpI2bViGFXDqv6aqEhRGEYRSMsuj7UA/7FE8M
vGrU+8UNUMlRtCCnzSn6Tll2sNIbCO0MA/QKHzRpwHavHY4NB7hfFl+a09cNn+zi
l7iQSqPyw3zuE9EzENil9IPmutXD3z2iOHXsrhc73WmW8nFOOC3biUXg9Dt++XJC
Jag77nnYgAKQM4b1Ex/pO/uoHvBfGCoSqvSMNDtcNKmsDscORuP0GWJjjcI01JWY
DU+oKryhHijehMyZ2reCX7TvAgMBAAGjggMhMIIDHTAdBgNVHQ4EFgQUhRi/w687
gZ/lecbhEzRt0gQG2OgwgZkGA1UdIwSBkTCBjoAUhRi/w687gZ/lecbhEzRt0gQG
2Oihc6RxMG8xCzAJBgNVBAYTAkdSMS4wLAYDVQQKEyVHcmVlayBSZXNlYXJjaCBh
bmQgVGVjaG5vbG9neSBOZXR3b3JrMTAwLgYDVQQDEydHUk5FVCBSb290IENlcnRp
ZmljYXRpb24gQXV0aG9yaXR5IDIwMDSCAQAwDwYDVR0TAQH/BAUwAwEB/zALBgNV
HQ8EBAMCAQYwEQYJYIZIAYb4QgEBBAQDAgAHMEoGCWCGSAGG+EIBCAQ9FjtodHRw
Oi8vd3d3LmNhLmdybmV0LmdyL2RvY3VtZW50cy9Hcm5ldFJvb3RDQTIwMDQvQ1Ax
LjAuaHRtbDCBmgYJYIZIAYb4QgENBIGMFoGJVGhpcyBjZXJ0aWZpY2F0ZSBpcyBz
dWJqZWN0IHRvIEdyZWVrIGxhd3MgYW5kIG91ciBDUFMuIFRoaXMgQ2VydGlmaWNh
dGUgbXVzdCBvbmx5IGJlIHVzZWQgZm9yIGFjYWRlbWljLCByZXNlYXJjaCBvciBl
ZHVjYXRpb25hbCBwdXJwb3Nlcy4wHgYDVR0RBBcwFYETcm9vdGNhMjAwNEBncm5l
dC5ncjCCASQGA1UdIASCARswggEXMIIBEwYMKwYBBAGBgQMBAQEBMIIBATA1Bggr
BgEFBQcCARYpaHR0cDovL3d3dy5jYS5ncm5ldC5nci9kb2N1bWVudHMvQ1BTLmh0
bWwwgccGCCsGAQUFBwICMIG6MCwWJUdyZWVrIFJlc2VhcmNoIGFuZCBUZWNobm9s
b2d5IE5ldHdvcmswAwIBARqBiVRoaXMgY2VydGlmaWNhdGUgaXMgc3ViamVjdCB0
byBHcmVlayBsYXdzIGFuZCBvdXIgQ1BTLiBUaGlzIENlcnRpZmljYXRlIG11c3Qg
b25seSBiZSB1c2VkIGZvciBhY2FkZW1pYywgcmVzZWFyY2ggb3IgZWR1Y2F0aW9u
YWwgcHVycG9zZXMuMA0GCSqGSIb3DQEBBAUAA4ICAQBdASA/ILFXKRbtOBqdX7k6
5nc57dYjVZiTJqlSFGQ8ELoUHpAEoRTsIqQN8xUnv1hJwRfCK01TAJ280i8YvlbM
VipH4iRujoqzY/JLGWYkF/eXPK9OWLl7YKK6OV7IE9ogWJ//K5YjTyLidYZWBpdo
s19fCxP0a/4wNJTyl9fM2TNOU1VHon0mgbUjzGi+ZUbgcmq8tsQW/tNKh0q6HvgB
mbCj1cEKzqSq3llG1DQLqmxz69z4mjt7t92fEs5zrfEwDpUct+UfNis0tOsgqPPV
Xyrm6C0gVN9//Usolc3TSFFXCcAtB/iUY7MtHgntyKh0ugwAcG/0GISMytzBVNfy
WsAFLeOT74JoHPzjkDgNc11wsKZmfQomXaI12W6ZAC/NhLPxkEh42gFmzYyqRe0o
Avc+XjioPa3vv1ruBuBZzvEo3yfksQJSJLW0ZXPtEIQaUY98WoMlwpPLE2IRiJE0
Hk8yXUCj1iZbRkYdyE7YiL7TDkGqvIGAYW37j+6ZH8vhJ30YYiihJo6vzr3X9Chs
HiSa66v/Z1smpQ4UXtCd8t7fQIKwR6IOXpqjBB7Icddlpq1rdh0IsgrfjenlATKS
bPD0MyJiauWxcGAGlYWx2rm6q32WM8ps5h4XqDAX0L+95tRWjCf7Hi0O91B4rUiG
v+f0zaAh42selhbMQpf/hw==
-----END CERTIFICATE-----

